; Function Attrs: nounwind uwtable
define noalias noundef ptr @Lms_GiaAreas(ptr noundef readonly captures(none) %0) local_unnamed_addr #0 {
  %2 = getelementptr i8, ptr %0, i64 72
  %.val12 = load ptr, ptr %2, align 8
  %3 = getelementptr i8, ptr %.val12, i64 4
  %.val12.val = load i32, ptr %3, align 4
  %4 = tail call noalias dereferenceable_or_null(16) ptr @malloc(i64 noundef 16) #23
  %5 = add i32 %.val12.val, -1
  %or.cond.i = icmp ult i32 %5, 15
  %spec.store.select.i = select i1 %or.cond.i, i32 16, i32 %.val12.val
  %6 = getelementptr inbounds nuw i8, ptr %4, i64 4
  store i32 0, ptr %6, align 4
  store i32 %spec.store.select.i, ptr %4, align 8
  %.not.i = icmp eq i32 %spec.store.select.i, 0
  br i1 %.not.i, label %Vec_StrAlloc.exit, label %7

7:                                                ; preds = %1
  %8 = sext i32 %spec.store.select.i to i64
  %9 = tail call noalias ptr @malloc(i64 noundef %8) #23
  br label %Vec_StrAlloc.exit

Vec_StrAlloc.exit:                                ; preds = %1, %7
  %10 = phi ptr [ %9, %7 ], [ null, %1 ]
  %11 = getelementptr inbounds nuw i8, ptr %4, i64 8
  store ptr %10, ptr %11, align 8
  %12 = getelementptr i8, ptr %0, i64 32
  %13 = icmp sgt i32 %.val12.val, 0
  br i1 %13, label %.lr.ph, label %.critedge

.lr.ph:                                           ; preds = %Vec_StrAlloc.exit, %Vec_StrPush.exit
  %indvars.iv = phi i64 [ %indvars.iv.next, %Vec_StrPush.exit ], [ 0, %Vec_StrAlloc.exit ]
  %14 = phi ptr [ %59, %Vec_StrPush.exit ], [ %.val12, %Vec_StrAlloc.exit ]
  %.val13 = load ptr, ptr %12, align 8
  %.not = icmp eq ptr %.val13, null
  br i1 %.not, label %.critedge, label %15

15:                                               ; preds = %.lr.ph
  %16 = getelementptr i8, ptr %14, i64 8
  %.val14.val = load ptr, ptr %16, align 8
  %17 = getelementptr inbounds nuw i32, ptr %.val14.val, i64 %indvars.iv
  %18 = load i32, ptr %17, align 4
  %19 = sext i32 %18 to i64
  %20 = getelementptr inbounds %struct.Gia_Obj_t_, ptr %.val13, i64 %19
  %21 = load i64, ptr %20, align 4
  %22 = and i64 %21, 536870911
  %23 = sub nsw i64 0, %22
  %24 = getelementptr inbounds %struct.Gia_Obj_t_, ptr %20, i64 %23
  %.val = load i64, ptr %24, align 4
  %25 = and i64 %.val, 2147483648
  %.not.i15 = icmp ne i64 %25, 0
  %26 = and i64 %.val, 536870911
  %27 = icmp eq i64 %26, 536870911
  %narrow.i.not = or i1 %.not.i15, %27
  br i1 %narrow.i.not, label %31, label %28

28:                                               ; preds = %15
  tail call void @Lms_ObjAreaMark_rec(ptr noundef nonnull %24)
  %29 = tail call i32 @Lms_ObjAreaUnmark_rec(ptr noundef nonnull %24)
  %30 = trunc i32 %29 to i8
  br label %31

31:                                               ; preds = %15, %28
  %32 = phi i8 [ %30, %28 ], [ 0, %15 ]
  %33 = load i32, ptr %6, align 4
  %34 = load i32, ptr %4, align 8
  %35 = icmp eq i32 %33, %34
  br i1 %35, label %36, label %.Vec_StrGrow.exit10_crit_edge.i

.Vec_StrGrow.exit10_crit_edge.i:                  ; preds = %31
  %.pre.i = load ptr, ptr %11, align 8
  br label %Vec_StrPush.exit

36:                                               ; preds = %31
  %37 = icmp slt i32 %33, 16
  br i1 %37, label %38, label %45

38:                                               ; preds = %36
  %39 = load ptr, ptr %11, align 8
  %.not9.i.i = icmp eq ptr %39, null
  br i1 %.not9.i.i, label %42, label %40

40:                                               ; preds = %38
  %41 = tail call dereferenceable_or_null(16) ptr @realloc(ptr noundef nonnull %39, i64 noundef 16) #24
  br label %Vec_StrGrow.exit.i

42:                                               ; preds = %38
  %43 = tail call noalias dereferenceable_or_null(16) ptr @malloc(i64 noundef 16) #23
  br label %Vec_StrGrow.exit.i

Vec_StrGrow.exit.i:                               ; preds = %42, %40
  %44 = phi ptr [ %41, %40 ], [ %43, %42 ]
  store ptr %44, ptr %11, align 8
  store i32 16, ptr %4, align 8
  br label %Vec_StrPush.exit

45:                                               ; preds = %36
  %46 = shl nuw nsw i32 %33, 1
  %47 = load ptr, ptr %11, align 8
  %.not9.i9.i = icmp eq ptr %47, null
  %48 = zext nneg i32 %46 to i64
  br i1 %.not9.i9.i, label %51, label %49

49:                                               ; preds = %45
  %50 = tail call ptr @realloc(ptr noundef nonnull %47, i64 noundef %48) #24
  br label %53

51:                                               ; preds = %45
  %52 = tail call noalias ptr @malloc(i64 noundef %48) #23
  br label %53

53:                                               ; preds = %51, %49
  %54 = phi ptr [ %50, %49 ], [ %52, %51 ]
  store ptr %54, ptr %11, align 8
  store i32 %46, ptr %4, align 8
  br label %Vec_StrPush.exit

Vec_StrPush.exit:                                 ; preds = %.Vec_StrGrow.exit10_crit_edge.i, %Vec_StrGrow.exit.i, %53
  %55 = phi ptr [ %.pre.i, %.Vec_StrGrow.exit10_crit_edge.i ], [ %54, %53 ], [ %44, %Vec_StrGrow.exit.i ]
  %56 = add nsw i32 %33, 1
  store i32 %56, ptr %6, align 4
  %57 = sext i32 %33 to i64
  %58 = getelementptr inbounds i8, ptr %55, i64 %57
  store i8 %32, ptr %58, align 1
  %indvars.iv.next = add nuw nsw i64 %indvars.iv, 1
  %59 = load ptr, ptr %2, align 8
  %60 = getelementptr i8, ptr %59, i64 4
  %.val11 = load i32, ptr %60, align 4
  %61 = sext i32 %.val11 to i64
  %62 = icmp slt i64 %indvars.iv.next, %61
  br i1 %62, label %.lr.ph, label %.critedge, !llvm.loop !9

.critedge:                                        ; preds = %.lr.ph, %Vec_StrPush.exit, %Vec_StrAlloc.exit
  ret ptr %4
}